---
triple:          'arm64-apple-darwin'
binary-path:     '/Users/navdeepkaur/Documents/LLD PATTERNS/behavioralPattern/observer/main'
relocations:
  - { offset: 0x433F, size: 0x8, addend: 0x0, symName: __ZStL8__ioinit, symObjAddr: 0x20997, symBinAddr: 0x100008000, symSize: 0x0 }
  - { offset: 0x4C3A, size: 0x8, addend: 0x0, symName: __GLOBAL__sub_I_main.cpp, symObjAddr: 0x1A68, symBinAddr: 0x100001F14, symSize: 0x14 }
  - { offset: 0x4C51, size: 0x8, addend: 0x0, symName: __Z41__static_initialization_and_destruction_0v, symObjAddr: 0x1A2C, symBinAddr: 0x100001ED8, symSize: 0x3C }
  - { offset: 0x4D29, size: 0x8, addend: 0x0, symName: __ZSt14__copy_move_a2ILb1EPP17ObserverInterfaceS2_S2_ET2_T0_T1_S3_, symObjAddr: 0x160C, symBinAddr: 0x100001D9C, symSize: 0x13C }
  - { offset: 0x4F01, size: 0x8, addend: 0x0, symName: __ZSt12__niter_wrapIN9__gnu_cxx17__normal_iteratorIPP17ObserverInterfaceSt6vectorIS3_SaIS3_EEEES4_ET_S9_T0_, symObjAddr: 0x15AC, symBinAddr: 0x100001D3C, symSize: 0x60 }
  - { offset: 0x5069, size: 0x8, addend: 0x0, symName: __ZSt14__relocate_a_1IP17ObserverInterfaceS1_ENSt9enable_ifIXsrSt24__is_bitwise_relocatableIT_vE5valueEPS4_E4typeES6_S6_S6_RSaIT0_E, symObjAddr: 0x1548, symBinAddr: 0x100001CD8, symSize: 0x64 }
  - { offset: 0x5104, size: 0x8, addend: 0x0, symName: __ZNSt15__new_allocatorIP17ObserverInterfaceE8allocateEmPKv, symObjAddr: 0x14CC, symBinAddr: 0x100001C5C, symSize: 0x7C }
  - { offset: 0x5172, size: 0x8, addend: 0x0, symName: __ZNKSt12_Vector_baseIP17ObserverInterfaceSaIS1_EE19_M_get_Tp_allocatorEv, symObjAddr: 0x14B8, symBinAddr: 0x100001C48, symSize: 0x14 }
  - { offset: 0x5196, size: 0x8, addend: 0x0, symName: __ZNSt6vectorIP17ObserverInterfaceSaIS1_EE11_S_max_sizeERKS2_, symObjAddr: 0x1464, symBinAddr: 0x100001BF4, symSize: 0x54 }
  - { offset: 0x5247, size: 0x8, addend: 0x0, symName: __ZNSt15__new_allocatorIP17ObserverInterfaceE10deallocateEPS1_m, symObjAddr: 0x1434, symBinAddr: 0x100001BC4, symSize: 0x30 }
  - { offset: 0x52D3, size: 0x8, addend: 0x0, symName: __ZSt12__miter_baseIN9__gnu_cxx17__normal_iteratorIPP17ObserverInterfaceSt6vectorIS3_SaIS3_EEEEET_S9_, symObjAddr: 0x1420, symBinAddr: 0x100001BB0, symSize: 0x14 }
  - { offset: 0x5304, size: 0x8, addend: 0x0, symName: __ZSt12__relocate_aIPP17ObserverInterfaceS2_SaIS1_EET0_T_S5_S4_RT1_, symObjAddr: 0x13D4, symBinAddr: 0x100001B64, symSize: 0x4C }
  - { offset: 0x5404, size: 0x8, addend: 0x0, symName: __ZSt3maxImERKT_S2_S2_, symObjAddr: 0x139C, symBinAddr: 0x100001B2C, symSize: 0x38 }
  - { offset: 0x5449, size: 0x8, addend: 0x0, symName: __ZNKSt6vectorIP17ObserverInterfaceSaIS1_EE4sizeEv, symObjAddr: 0x135C, symBinAddr: 0x100001AEC, symSize: 0x40 }
  - { offset: 0x5481, size: 0x8, addend: 0x0, symName: __ZNKSt6vectorIP17ObserverInterfaceSaIS1_EE8max_sizeEv, symObjAddr: 0x133C, symBinAddr: 0x100001ACC, symSize: 0x20 }
  - { offset: 0x54A5, size: 0x8, addend: 0x0, symName: __ZSt8_DestroyIPP17ObserverInterfaceEvT_S3_, symObjAddr: 0x1324, symBinAddr: 0x100001AB4, symSize: 0x18 }
  - { offset: 0x552A, size: 0x8, addend: 0x0, symName: __ZNSt6vectorIP17ObserverInterfaceSaIS1_EE15_M_erase_at_endEPS1_, symObjAddr: 0x129C, symBinAddr: 0x100001A2C, symSize: 0x88 }
  - { offset: 0x55B2, size: 0x8, addend: 0x0, symName: __ZSt4moveIN9__gnu_cxx17__normal_iteratorIPP17ObserverInterfaceSt6vectorIS3_SaIS3_EEEES8_ET0_T_SA_S9_, symObjAddr: 0x11F4, symBinAddr: 0x100001984, symSize: 0xA8 }
  - { offset: 0x5792, size: 0x8, addend: 0x0, symName: __ZN9__gnu_cxx5__ops16_Iter_equals_valIKP17ObserverInterfaceEclINS_17__normal_iteratorIPS3_St6vectorIS3_SaIS3_EEEEEEbT_, symObjAddr: 0x11C0, symBinAddr: 0x100001950, symSize: 0x34 }
  - { offset: 0x57EE, size: 0x8, addend: 0x0, symName: __ZSt9__find_ifIN9__gnu_cxx17__normal_iteratorIPP17ObserverInterfaceSt6vectorIS3_SaIS3_EEEENS0_5__ops16_Iter_equals_valIKS3_EEET_SD_SD_T0_, symObjAddr: 0x111C, symBinAddr: 0x1000018AC, symSize: 0xA4 }
  - { offset: 0x58F8, size: 0x8, addend: 0x0, symName: __ZN9__gnu_cxx5__ops16_Iter_equals_valIKP17ObserverInterfaceEC1ERS4_, symObjAddr: 0x10F8, symBinAddr: 0x100001888, symSize: 0x24 }
  - { offset: 0x5920, size: 0x8, addend: 0x0, symName: __ZNSt6vectorIP17ObserverInterfaceSaIS1_EE11_S_relocateEPS1_S4_S4_RS2_, symObjAddr: 0x10C4, symBinAddr: 0x100001854, symSize: 0x34 }
  - { offset: 0x59B0, size: 0x8, addend: 0x0, symName: __ZNSt6vectorIP17ObserverInterfaceSaIS1_EE12_Guard_allocD1Ev, symObjAddr: 0x1078, symBinAddr: 0x100001808, symSize: 0x4C }
  - { offset: 0x5A13, size: 0x8, addend: 0x0, symName: __ZNSt6vectorIP17ObserverInterfaceSaIS1_EE12_Guard_allocC1EPS1_mRSt12_Vector_baseIS1_S2_E, symObjAddr: 0x1034, symBinAddr: 0x1000017C4, symSize: 0x44 }
  - { offset: 0x5A4F, size: 0x8, addend: 0x0, symName: __ZNSt12_Vector_baseIP17ObserverInterfaceSaIS1_EE11_M_allocateEm, symObjAddr: 0xFE4, symBinAddr: 0x100001774, symSize: 0x50 }
  - { offset: 0x5AEA, size: 0x8, addend: 0x0, symName: __ZNKSt6vectorIP17ObserverInterfaceSaIS1_EE12_M_check_lenEmPKc, symObjAddr: 0xF14, symBinAddr: 0x1000016A4, symSize: 0xD0 }
  - { offset: 0x5BA2, size: 0x8, addend: 0x0, symName: __ZSt3minImERKT_S2_S2_, symObjAddr: 0xEDC, symBinAddr: 0x10000166C, symSize: 0x38 }
  - { offset: 0x5C1D, size: 0x8, addend: 0x0, symName: __ZNSt12_Vector_baseIP17ObserverInterfaceSaIS1_EE19_M_get_Tp_allocatorEv, symObjAddr: 0xEC8, symBinAddr: 0x100001658, symSize: 0x14 }
  - { offset: 0x5C45, size: 0x8, addend: 0x0, symName: __ZNSt12_Vector_baseIP17ObserverInterfaceSaIS1_EE13_M_deallocateEPS1_m, symObjAddr: 0xE70, symBinAddr: 0x100001600, symSize: 0x58 }
  - { offset: 0x5CD7, size: 0x8, addend: 0x0, symName: __ZNSt12_Vector_baseIP17ObserverInterfaceSaIS1_EE17_Vector_impl_dataC2Ev, symObjAddr: 0xE44, symBinAddr: 0x1000015D4, symSize: 0x2C }
  - { offset: 0x5D0F, size: 0x8, addend: 0x0, symName: __ZNSt6vectorIP17ObserverInterfaceSaIS1_EE8_M_eraseEN9__gnu_cxx17__normal_iteratorIPS1_S3_EES7_, symObjAddr: 0xD38, symBinAddr: 0x1000014C8, symSize: 0x10C }
  - { offset: 0x5F05, size: 0x8, addend: 0x0, symName: __ZNKSt6vectorIP17ObserverInterfaceSaIS1_EE6cbeginEv, symObjAddr: 0xD0C, symBinAddr: 0x10000149C, symSize: 0x2C }
  - { offset: 0x5F50, size: 0x8, addend: 0x0, symName: __ZSt11__remove_ifIN9__gnu_cxx17__normal_iteratorIPP17ObserverInterfaceSt6vectorIS3_SaIS3_EEEENS0_5__ops16_Iter_equals_valIKS3_EEET_SD_SD_T0_, symObjAddr: 0xBF0, symBinAddr: 0x100001380, symSize: 0x11C }
  - { offset: 0x617B, size: 0x8, addend: 0x0, symName: __ZN9__gnu_cxx5__ops17__iter_equals_valIKP17ObserverInterfaceEENS0_16_Iter_equals_valIT_EERS6_, symObjAddr: 0xBCC, symBinAddr: 0x10000135C, symSize: 0x24 }
  - { offset: 0x61D1, size: 0x8, addend: 0x0, symName: __ZNSt6vectorIP17ObserverInterfaceSaIS1_EE17_M_realloc_appendIJRKS1_EEEvDpOT_, symObjAddr: 0x9D8, symBinAddr: 0x100001168, symSize: 0x1F4 }
  - { offset: 0x6454, size: 0x8, addend: 0x0, symName: __ZNSt12_Vector_baseIP17ObserverInterfaceSaIS1_EE12_Vector_implC1Ev, symObjAddr: 0x9A0, symBinAddr: 0x100001130, symSize: 0x38 }
  - { offset: 0x64CE, size: 0x8, addend: 0x0, symName: __ZNSt6vectorIP17ObserverInterfaceSaIS1_EE5eraseEN9__gnu_cxx17__normal_iteratorIPKS1_S3_EES8_, symObjAddr: 0x8B8, symBinAddr: 0x100001048, symSize: 0xE8 }
  - { offset: 0x66C7, size: 0x8, addend: 0x0, symName: __ZSt6removeIN9__gnu_cxx17__normal_iteratorIPP17ObserverInterfaceSt6vectorIS3_SaIS3_EEEES3_ET_S9_S9_RKT0_, symObjAddr: 0x884, symBinAddr: 0x100001014, symSize: 0x34 }
  - { offset: 0x6725, size: 0x8, addend: 0x0, symName: __ZNSt6vectorIP17ObserverInterfaceSaIS1_EE3endEv, symObjAddr: 0x854, symBinAddr: 0x100000FE4, symSize: 0x30 }
  - { offset: 0x6774, size: 0x8, addend: 0x0, symName: __ZNSt6vectorIP17ObserverInterfaceSaIS1_EE5beginEv, symObjAddr: 0x828, symBinAddr: 0x100000FB8, symSize: 0x2C }
  - { offset: 0x67C3, size: 0x8, addend: 0x0, symName: __ZNSt6vectorIP17ObserverInterfaceSaIS1_EE9push_backERKS1_, symObjAddr: 0x748, symBinAddr: 0x100000ED8, symSize: 0xE0 }
  - { offset: 0x68A8, size: 0x8, addend: 0x0, symName: _main, symObjAddr: 0x604, symBinAddr: 0x100000D94, symSize: 0x144 }
  - { offset: 0x690C, size: 0x8, addend: 0x0, symName: __ZN18WeatherDataSubjectC1Ev, symObjAddr: 0x5C4, symBinAddr: 0x100000D54, symSize: 0x40 }
  - { offset: 0x6948, size: 0x8, addend: 0x0, symName: __ZNSt6vectorIP17ObserverInterfaceSaIS1_EEC1Ev, symObjAddr: 0x5A4, symBinAddr: 0x100000D34, symSize: 0x20 }
  - { offset: 0x6984, size: 0x8, addend: 0x0, symName: __ZNSt12_Vector_baseIP17ObserverInterfaceSaIS1_EEC2Ev, symObjAddr: 0x584, symBinAddr: 0x100000D14, symSize: 0x20 }
  - { offset: 0x69C4, size: 0x8, addend: 0x0, symName: __ZN16SubjectInterfaceC2Ev, symObjAddr: 0x55C, symBinAddr: 0x100000CEC, symSize: 0x28 }
  - { offset: 0x69E8, size: 0x8, addend: 0x0, symName: __ZN24AnotherConditionsDisplay7displayEv, symObjAddr: 0x4E0, symBinAddr: 0x100000C70, symSize: 0x7C }
  - { offset: 0x6A10, size: 0x8, addend: 0x0, symName: __ZN24AnotherConditionsDisplay6updateEfff, symObjAddr: 0x488, symBinAddr: 0x100000C18, symSize: 0x50 }
  - { offset: 0x6A89, size: 0x8, addend: 0x0, symName: __ZN24AnotherConditionsDisplayC1EP18WeatherDataSubject, symObjAddr: 0x404, symBinAddr: 0x100000B94, symSize: 0x84 }
  - { offset: 0x6AB5, size: 0x8, addend: 0x0, symName: __ZN24CurrentConditionsDisplay7displayEv, symObjAddr: 0x388, symBinAddr: 0x100000B18, symSize: 0x7C }
  - { offset: 0x6ADD, size: 0x8, addend: 0x0, symName: __ZN24CurrentConditionsDisplay6updateEfff, symObjAddr: 0x330, symBinAddr: 0x100000AC0, symSize: 0x50 }
  - { offset: 0x6B56, size: 0x8, addend: 0x0, symName: __ZN24CurrentConditionsDisplayC1EP18WeatherDataSubject, symObjAddr: 0x2AC, symBinAddr: 0x100000A3C, symSize: 0x84 }
  - { offset: 0x6B9E, size: 0x8, addend: 0x0, symName: __ZN17ObserverInterfaceC2Ev, symObjAddr: 0x284, symBinAddr: 0x100000A14, symSize: 0x28 }
  - { offset: 0x6BDE, size: 0x8, addend: 0x0, symName: __ZN16DisplayInterfaceC2Ev, symObjAddr: 0x25C, symBinAddr: 0x1000009EC, symSize: 0x28 }
  - { offset: 0x6C02, size: 0x8, addend: 0x0, symName: __ZN18WeatherDataSubject15setMeasurementsEfff, symObjAddr: 0x20C, symBinAddr: 0x10000099C, symSize: 0x50 }
  - { offset: 0x6C57, size: 0x8, addend: 0x0, symName: __ZN18WeatherDataSubject19measurementsChangedEv, symObjAddr: 0x1DC, symBinAddr: 0x10000096C, symSize: 0x30 }
  - { offset: 0x6C7F, size: 0x8, addend: 0x0, symName: __ZN18WeatherDataSubject14notifyObserverEv, symObjAddr: 0x10C, symBinAddr: 0x10000089C, symSize: 0xD0 }
  - { offset: 0x6DEE, size: 0x8, addend: 0x0, symName: __ZN18WeatherDataSubject14removeObserverEP17ObserverInterface, symObjAddr: 0x5C, symBinAddr: 0x1000007EC, symSize: 0xB0 }
  - { offset: 0x6EAF, size: 0x8, addend: 0x0, symName: __ZN18WeatherDataSubject11addObserverEP17ObserverInterface, symObjAddr: 0x30, symBinAddr: 0x1000007C0, symSize: 0x2C }
  - { offset: 0x6EEA, size: 0x8, addend: 0x0, symName: __ZdlPvS_, symObjAddr: 0x18, symBinAddr: 0x1000007A8, symSize: 0x18 }
  - { offset: 0x6F1E, size: 0x8, addend: 0x0, symName: __ZnwmPv, symObjAddr: 0x0, symBinAddr: 0x100000790, symSize: 0x18 }
...
